; Function Attrs: nounwind uwtable
define range(i32 0, 2) i32 @ps_pdwrite(ptr noundef %0, ptr noundef %1, ptr noundef %2, i64 noundef %3) local_unnamed_addr #9 {
  %5 = load ptr, ptr %0, align 8
  %6 = getelementptr inbounds i8, ptr %5, i64 16
  %7 = load ptr, ptr %6, align 8
  %8 = ptrtoint ptr %1 to i64
  %9 = tail call i32 %7(ptr noundef nonnull %0, i64 noundef %8, ptr noundef %2, i64 noundef %3) #21
  %.not = icmp eq i32 %9, 0
  %10 = zext i1 %.not to i32
  ret i32 %10
}